target datalayout = "e-m:e-p270:32:32-p271:32:32-p272:64:64-i64:64-i128:128-f80:128-n8:16:32:64-S128"
target triple = "x86_64-pc-linux-gnu"

@g_assert_poison = external global ptr, align 8
@.str.6 = private unnamed_addr constant [42 x i8] c"src/hotspot/share/prims/methodHandles.cpp\00", align 1
@.str.15 = private unnamed_addr constant [31 x i8] c"unexpected intrinsic id: %d %s\00", align 1

; Function Attrs: mustprogress nounwind uwtable
define linkonce_odr hidden noundef i32 @_ZN12vmIntrinsics6as_intE13vmIntrinsicID(i32 noundef %0) #1 comdat align 2 {
  %2 = alloca i32, align 4
  store i32 %0, ptr %2, align 4
  %3 = load i32, ptr %2, align 4
  ret i32 %3
}

; Function Attrs: mustprogress nounwind uwtable
define hidden noundef i32 @_ZN13MethodHandles40signature_polymorphic_intrinsic_ref_kindE13vmIntrinsicID(i32 noundef %0) #1 align 2 {
  %2 = alloca i32, align 4
  %3 = alloca i32, align 4
  store i32 %0, ptr %3, align 4
  %4 = load i32, ptr %3, align 4
  switch i32 %4, label %11 [
    i32 397, label %5
    i32 402, label %6
    i32 398, label %7
    i32 399, label %8
    i32 400, label %9
    i32 401, label %10
  ]

5:                                                ; preds = %1
  store i32 0, ptr %2, align 4
  br label %19

6:                                                ; preds = %1
  store i32 0, ptr %2, align 4
  br label %19

7:                                                ; preds = %1
  store i32 5, ptr %2, align 4
  br label %19

8:                                                ; preds = %1
  store i32 6, ptr %2, align 4
  br label %19

9:                                                ; preds = %1
  store i32 7, ptr %2, align 4
  br label %19

10:                                               ; preds = %1
  store i32 9, ptr %2, align 4
  br label %19

11:                                               ; preds = %1
  br label %12

12:                                               ; preds = %11
  %13 = load ptr, ptr @g_assert_poison, align 8
  store i8 88, ptr %13, align 1
  %14 = load i32, ptr %3, align 4
  %15 = call noundef i32 @_ZN12vmIntrinsics6as_intE13vmIntrinsicID(i32 noundef %14)
  %16 = load i32, ptr %3, align 4
  %17 = call noundef ptr @_ZN12vmIntrinsics7name_atE13vmIntrinsicID(i32 noundef %16)
  call void (i32, ptr, i32, ptr, ...) @_Z12report_fatal11VMErrorTypePKciS1_z(i32 noundef -536870912, ptr noundef @.str.6, i32 noundef 465, ptr noundef @.str.15, i32 noundef %15, ptr noundef %17) #11
  unreachable

18:                                               ; No predecessors!
  store i32 0, ptr %2, align 4
  br label %19

19:                                               ; preds = %18, %10, %9, %8, %7, %6, %5
  %20 = load i32, ptr %2, align 4
  ret i32 %20
}