; Function Attrs: mustprogress nounwind uwtable
define hidden noundef range(i32 0, 10) i32 @_ZN13MethodHandles40signature_polymorphic_intrinsic_ref_kindE13vmIntrinsicID(i32 noundef %0) local_unnamed_addr #0 align 2 {
  %switch.tableidx = add i32 %0, -397
  %2 = icmp ult i32 %switch.tableidx, 6
  br i1 %2, label %switch.lookup, label %3

3:                                                ; preds = %1
  %4 = load ptr, ptr @g_assert_poison, align 8
  store i8 88, ptr %4, align 1
  %5 = tail call noundef ptr @_ZN12vmIntrinsics7name_atE13vmIntrinsicID(i32 noundef %0) #13
  tail call void (i32, ptr, i32, ptr, ...) @_Z12report_fatal11VMErrorTypePKciS1_z(i32 noundef -536870912, ptr noundef nonnull @.str.6, i32 noundef 465, ptr noundef nonnull @.str.15, i32 noundef %0, ptr noundef %5) #14
  unreachable

switch.lookup:                                    ; preds = %1
  %6 = zext nneg i32 %switch.tableidx to i64
  %switch.gep = getelementptr inbounds [6 x i32], ptr @switch.table._ZN13MethodHandles40signature_polymorphic_intrinsic_ref_kindE13vmIntrinsicID, i64 0, i64 %6
  %switch.load = load i32, ptr %switch.gep, align 4
  ret i32 %switch.load
}